; Function Attrs: nofree norecurse nosync nounwind memory(argmem: readwrite) uwtable
define dso_local i32 @LZ4_loadDictSlow(ptr noundef captures(none) initializes((0, 16416)) %0, ptr noundef %1, i32 noundef %2) local_unnamed_addr #10 {
  tail call void @llvm.memset.p0.i64(ptr noundef nonnull align 8 dereferenceable(16416) %0, i8 0, i64 16416, i1 false)
  %4 = getelementptr inbounds nuw i8, ptr %0, i64 16400
  store i32 65536, ptr %4, align 8, !tbaa !7
  %5 = icmp slt i32 %2, 8
  br i1 %5, label %LZ4_loadDict_internal.exit, label %6

6:                                                ; preds = %3
  %7 = zext nneg i32 %2 to i64
  %8 = getelementptr inbounds nuw i8, ptr %1, i64 %7
  %9 = ptrtoint ptr %8 to i64
  %10 = icmp samesign ugt i32 %2, 65536
  %11 = getelementptr inbounds i8, ptr %8, i64 -65536
  %spec.select.i = select i1 %10, ptr %11, ptr %1
  %12 = getelementptr inbounds nuw i8, ptr %0, i64 16384
  store ptr %spec.select.i, ptr %12, align 8, !tbaa !35
  %13 = ptrtoint ptr %spec.select.i to i64
  %14 = sub i64 %9, %13
  %15 = trunc i64 %14 to i32
  %16 = getelementptr inbounds nuw i8, ptr %0, i64 16408
  store i32 %15, ptr %16, align 8, !tbaa !13
  %17 = getelementptr inbounds nuw i8, ptr %0, i64 16404
  store i32 2, ptr %17, align 4, !tbaa !14
  %18 = sub i32 65536, %15
  %19 = getelementptr inbounds i8, ptr %8, i64 -8
  %.not49.i = icmp ugt ptr %spec.select.i, %19
  br i1 %.not49.i, label %LZ4_loadDict_internal.exit, label %.lr.ph.i

.lr.ph.i:                                         ; preds = %6, %.lr.ph.i
  %.151.i = phi ptr [ %23, %.lr.ph.i ], [ %spec.select.i, %6 ]
  %.04450.i = phi i32 [ %24, %.lr.ph.i ], [ %18, %6 ]
  %.1.val.i = load i64, ptr %.151.i, align 1, !tbaa !26
  %20 = mul i64 %.1.val.i, -3523014627271114752
  %21 = lshr i64 %20, 52
  %22 = getelementptr inbounds nuw i32, ptr %0, i64 %21
  store i32 %.04450.i, ptr %22, align 4, !tbaa !31
  %23 = getelementptr inbounds nuw i8, ptr %.151.i, i64 3
  %24 = add i32 %.04450.i, 3
  %.not.i = icmp ugt ptr %23, %19
  br i1 %.not.i, label %.lr.ph55.i, label %.lr.ph.i, !llvm.loop !36

.lr.ph55.i:                                       ; preds = %.lr.ph.i, %30
  %.254.i = phi ptr [ %31, %30 ], [ %spec.select.i, %.lr.ph.i ]
  %.14553.i = phi i32 [ %32, %30 ], [ %18, %.lr.ph.i ]
  %.2.val.i = load i64, ptr %.254.i, align 1, !tbaa !26
  %25 = mul i64 %.2.val.i, -3523014627271114752
  %26 = lshr i64 %25, 52
  %27 = getelementptr inbounds nuw i32, ptr %0, i64 %26
  %28 = load i32, ptr %27, align 4, !tbaa !31
  %.not48.not.i = icmp eq i32 %28, 0
  br i1 %.not48.not.i, label %29, label %30

29:                                               ; preds = %.lr.ph55.i
  store i32 %.14553.i, ptr %27, align 4, !tbaa !31
  br label %30

30:                                               ; preds = %29, %.lr.ph55.i
  %31 = getelementptr inbounds nuw i8, ptr %.254.i, i64 1
  %32 = add i32 %.14553.i, 1
  %.not47.i = icmp ugt ptr %31, %19
  br i1 %.not47.i, label %LZ4_loadDict_internal.exit, label %.lr.ph55.i, !llvm.loop !37

LZ4_loadDict_internal.exit:                       ; preds = %30, %3, %6
  %.0.i = phi i32 [ 0, %3 ], [ %15, %6 ], [ %15, %30 ]
  ret i32 %.0.i
}